target datalayout = "e-m:e-p270:32:32-p271:32:32-p272:64:64-i64:64-i128:128-f80:128-n8:16:32:64-S128"
target triple = "x86_64-pc-linux-gnu"

%struct.JNINativeInterface_ = type { ptr, ptr, ptr, ptr, ptr, ptr, ptr, ptr, ptr, ptr, ptr, ptr, ptr, ptr, ptr, ptr, ptr, ptr, ptr, ptr, ptr, ptr, ptr, ptr, ptr, ptr, ptr, ptr, ptr, ptr, ptr, ptr, ptr, ptr, ptr, ptr, ptr, ptr, ptr, ptr, ptr, ptr, ptr, ptr, ptr, ptr, ptr, ptr, ptr, ptr, ptr, ptr, ptr, ptr, ptr, ptr, ptr, ptr, ptr, ptr, ptr, ptr, ptr, ptr, ptr, ptr, ptr, ptr, ptr, ptr, ptr, ptr, ptr, ptr, ptr, ptr, ptr, ptr, ptr, ptr, ptr, ptr, ptr, ptr, ptr, ptr, ptr, ptr, ptr, ptr, ptr, ptr, ptr, ptr, ptr, ptr, ptr, ptr, ptr, ptr, ptr, ptr, ptr, ptr, ptr, ptr, ptr, ptr, ptr, ptr, ptr, ptr, ptr, ptr, ptr, ptr, ptr, ptr, ptr, ptr, ptr, ptr, ptr, ptr, ptr, ptr, ptr, ptr, ptr, ptr, ptr, ptr, ptr, ptr, ptr, ptr, ptr, ptr, ptr, ptr, ptr, ptr, ptr, ptr, ptr, ptr, ptr, ptr, ptr, ptr, ptr, ptr, ptr, ptr, ptr, ptr, ptr, ptr, ptr, ptr, ptr, ptr, ptr, ptr, ptr, ptr, ptr, ptr, ptr, ptr, ptr, ptr, ptr, ptr, ptr, ptr, ptr, ptr, ptr, ptr, ptr, ptr, ptr, ptr, ptr, ptr, ptr, ptr, ptr, ptr, ptr, ptr, ptr, ptr, ptr, ptr, ptr, ptr, ptr, ptr, ptr, ptr, ptr, ptr, ptr, ptr, ptr, ptr, ptr, ptr, ptr, ptr, ptr, ptr, ptr, ptr, ptr, ptr, ptr, ptr, ptr, ptr, ptr, ptr, ptr, ptr, ptr, ptr, ptr, ptr, ptr, ptr, ptr, ptr, ptr }
%struct.NotifyListNode = type { i64, ptr, ptr }

@notifyListHead = hidden global ptr null, align 8
@notifyListLock = hidden global ptr null, align 8

; Function Attrs: nounwind uwtable
define hidden ptr @removeNotifyEntry(ptr noundef %0, i64 noundef %1) #0 {
  %3 = alloca ptr, align 8
  %4 = alloca i64, align 8
  %5 = alloca ptr, align 8
  %6 = alloca ptr, align 8
  %7 = alloca ptr, align 8
  store ptr %0, ptr %3, align 8
  store i64 %1, ptr %4, align 8
  %8 = load ptr, ptr %3, align 8
  %9 = load ptr, ptr %8, align 8
  %10 = getelementptr inbounds %struct.JNINativeInterface_, ptr %9, i32 0, i32 217
  %11 = load ptr, ptr %10, align 8
  %12 = load ptr, ptr %3, align 8
  %13 = load ptr, ptr @notifyListLock, align 8
  %14 = call i32 %11(ptr noundef %12, ptr noundef %13)
  %15 = load ptr, ptr @notifyListHead, align 8
  %16 = icmp eq ptr %15, null
  br i1 %16, label %17, label %18

17:                                               ; preds = %2
  store ptr null, ptr %5, align 8
  br label %64

18:                                               ; preds = %2
  %19 = load ptr, ptr @notifyListHead, align 8
  store ptr %19, ptr %6, align 8
  store ptr null, ptr %7, align 8
  br label %20

20:                                               ; preds = %33, %18
  %21 = load ptr, ptr %6, align 8
  %22 = getelementptr inbounds %struct.NotifyListNode, ptr %21, i32 0, i32 0
  %23 = load i64, ptr %22, align 8
  %24 = load i64, ptr %4, align 8
  %25 = icmp ne i64 %23, %24
  br i1 %25, label %26, label %31

26:                                               ; preds = %20
  %27 = load ptr, ptr %6, align 8
  %28 = getelementptr inbounds %struct.NotifyListNode, ptr %27, i32 0, i32 2
  %29 = load ptr, ptr %28, align 8
  %30 = icmp ne ptr %29, null
  br label %31

31:                                               ; preds = %26, %20
  %32 = phi i1 [ false, %20 ], [ %30, %26 ]
  br i1 %32, label %33, label %38

33:                                               ; preds = %31
  %34 = load ptr, ptr %6, align 8
  store ptr %34, ptr %7, align 8
  %35 = load ptr, ptr %6, align 8
  %36 = getelementptr inbounds %struct.NotifyListNode, ptr %35, i32 0, i32 2
  %37 = load ptr, ptr %36, align 8
  store ptr %37, ptr %6, align 8
  br label %20, !llvm.loop !8

38:                                               ; preds = %31
  %39 = load ptr, ptr %6, align 8
  %40 = getelementptr inbounds %struct.NotifyListNode, ptr %39, i32 0, i32 0
  %41 = load i64, ptr %40, align 8
  %42 = load i64, ptr %4, align 8
  %43 = icmp eq i64 %41, %42
  br i1 %43, label %44, label %62

44:                                               ; preds = %38
  %45 = load ptr, ptr %7, align 8
  %46 = icmp eq ptr %45, null
  br i1 %46, label %47, label %51

47:                                               ; preds = %44
  %48 = load ptr, ptr %6, align 8
  %49 = getelementptr inbounds %struct.NotifyListNode, ptr %48, i32 0, i32 2
  %50 = load ptr, ptr %49, align 8
  store ptr %50, ptr @notifyListHead, align 8
  br label %57

51:                                               ; preds = %44
  %52 = load ptr, ptr %6, align 8
  %53 = getelementptr inbounds %struct.NotifyListNode, ptr %52, i32 0, i32 2
  %54 = load ptr, ptr %53, align 8
  %55 = load ptr, ptr %7, align 8
  %56 = getelementptr inbounds %struct.NotifyListNode, ptr %55, i32 0, i32 2
  store ptr %54, ptr %56, align 8
  br label %57

57:                                               ; preds = %51, %47
  %58 = load ptr, ptr %6, align 8
  %59 = getelementptr inbounds %struct.NotifyListNode, ptr %58, i32 0, i32 1
  %60 = load ptr, ptr %59, align 8
  store ptr %60, ptr %5, align 8
  %61 = load ptr, ptr %6, align 8
  call void @free(ptr noundef %61) #5
  br label %63

62:                                               ; preds = %38
  store ptr null, ptr %5, align 8
  br label %63

63:                                               ; preds = %62, %57
  br label %64

64:                                               ; preds = %63, %17
  %65 = load ptr, ptr %3, align 8
  %66 = load ptr, ptr %65, align 8
  %67 = getelementptr inbounds %struct.JNINativeInterface_, ptr %66, i32 0, i32 218
  %68 = load ptr, ptr %67, align 8
  %69 = load ptr, ptr %3, align 8
  %70 = load ptr, ptr @notifyListLock, align 8
  %71 = call i32 %68(ptr noundef %69, ptr noundef %70)
  %72 = load ptr, ptr %5, align 8
  ret ptr %72
}