; Function Attrs: nounwind uwtable
define hidden ptr @removeNotifyEntry(ptr noundef %0, i64 noundef %1) local_unnamed_addr #0 {
  %3 = load ptr, ptr %0, align 8
  %4 = getelementptr inbounds i8, ptr %3, i64 1736
  %5 = load ptr, ptr %4, align 8
  %6 = load ptr, ptr @notifyListLock, align 8
  %7 = tail call i32 %5(ptr noundef nonnull %0, ptr noundef %6) #4
  %8 = load ptr, ptr @notifyListHead, align 8
  %9 = icmp eq ptr %8, null
  br i1 %9, label %.critedge, label %.preheader

.preheader:                                       ; preds = %2
  %10 = load i64, ptr %8, align 8
  %.not24 = icmp eq i64 %10, %1
  br i1 %.not24, label %15, label %.lr.ph

11:                                               ; preds = %.lr.ph
  %12 = load i64, ptr %14, align 8
  %.not = icmp eq i64 %12, %1
  br i1 %.not, label %._crit_edge, label %.lr.ph, !llvm.loop !8

.lr.ph:                                           ; preds = %.preheader, %11
  %.01725 = phi ptr [ %14, %11 ], [ %8, %.preheader ]
  %13 = getelementptr inbounds i8, ptr %.01725, i64 16
  %14 = load ptr, ptr %13, align 8
  %.not21 = icmp eq ptr %14, null
  br i1 %.not21, label %.critedge, label %11, !llvm.loop !8

15:                                               ; preds = %.preheader
  %16 = getelementptr inbounds i8, ptr %8, i64 16
  %17 = load ptr, ptr %16, align 8
  store ptr %17, ptr @notifyListHead, align 8
  br label %21

._crit_edge:                                      ; preds = %11
  %18 = getelementptr inbounds i8, ptr %14, i64 16
  %19 = load ptr, ptr %18, align 8
  %20 = getelementptr inbounds i8, ptr %.01725, i64 16
  store ptr %19, ptr %20, align 8
  br label %21

21:                                               ; preds = %._crit_edge, %15
  %.017.lcssa31 = phi ptr [ %14, %._crit_edge ], [ %8, %15 ]
  %22 = getelementptr inbounds i8, ptr %.017.lcssa31, i64 8
  %23 = load ptr, ptr %22, align 8
  tail call void @free(ptr noundef nonnull %.017.lcssa31) #4
  br label %.critedge

.critedge:                                        ; preds = %.lr.ph, %2, %21
  %.018 = phi ptr [ %23, %21 ], [ null, %2 ], [ null, %.lr.ph ]
  %24 = load ptr, ptr %0, align 8
  %25 = getelementptr inbounds i8, ptr %24, i64 1744
  %26 = load ptr, ptr %25, align 8
  %27 = load ptr, ptr @notifyListLock, align 8
  %28 = tail call i32 %26(ptr noundef nonnull %0, ptr noundef %27) #4
  ret ptr %.018
}